target datalayout = "e-m:e-p270:32:32-p271:32:32-p272:64:64-i64:64-i128:128-f80:128-n8:16:32:64-S128"
target triple = "x86_64-pc-linux-gnu"

%class.Node = type <{ ptr, ptr, ptr, i32, i32, i32, i32, i32, i32, i32, [4 x i8] }>
%class.PhaseValues = type { %class.PhaseTransform, i8, ptr, ptr, [137 x ptr], [137 x ptr], [20 x ptr] }
%class.PhaseTransform = type { ptr, %class.Phase }
%class.Phase = type { i32, ptr }
%class.TypeInt = type { %class.TypeInteger.base, i32, i32 }
%class.TypeInteger.base = type { %class.Type.base, i16 }
%class.Type.base = type <{ ptr, ptr, i32 }>
%class.TypeInteger = type { %class.Type.base, i16, [2 x i8] }
%class.Type_Array = type { ptr, i32, ptr }

@_ZN4Type3TOPE = external global ptr, align 8
@_ZN4Type6BOTTOME = external global ptr, align 8
@_ZN7TypeInt3INTE = external global ptr, align 8
@_ZN7TypeInt4ZEROE = external global ptr, align 8

; Function Attrs: mustprogress nounwind uwtable
define linkonce_odr hidden noundef ptr @_ZNK10Type_Array11fast_lookupEj(ptr noundef nonnull align 8 dereferenceable(24) %0, i32 noundef %1) #1 comdat align 2 {
  %3 = alloca ptr, align 8
  %4 = alloca i32, align 4
  store ptr %0, ptr %3, align 8
  store i32 %1, ptr %4, align 4
  %5 = load ptr, ptr %3, align 8
  %6 = getelementptr inbounds %class.Type_Array, ptr %5, i32 0, i32 2
  %7 = load ptr, ptr %6, align 8
  %8 = load i32, ptr %4, align 4
  %9 = zext i32 %8 to i64
  %10 = getelementptr inbounds ptr, ptr %7, i64 %9
  %11 = load ptr, ptr %10, align 8
  ret ptr %11
}

; Function Attrs: mustprogress nounwind uwtable
define linkonce_odr hidden noundef signext i16 @_Z4MAX2IsET_S0_S0_(i16 noundef signext %0, i16 noundef signext %1) #1 comdat {
  %3 = alloca i16, align 2
  %4 = alloca i16, align 2
  store i16 %0, ptr %3, align 2
  store i16 %1, ptr %4, align 2
  %5 = load i16, ptr %3, align 2
  %6 = sext i16 %5 to i32
  %7 = load i16, ptr %4, align 2
  %8 = sext i16 %7 to i32
  %9 = icmp sgt i32 %6, %8
  br i1 %9, label %10, label %12

10:                                               ; preds = %2
  %11 = load i16, ptr %3, align 2
  br label %14

12:                                               ; preds = %2
  %13 = load i16, ptr %4, align 2
  br label %14

14:                                               ; preds = %12, %10
  %15 = phi i16 [ %11, %10 ], [ %13, %12 ]
  ret i16 %15
}

; Function Attrs: mustprogress nounwind uwtable
define linkonce_odr hidden noundef i32 @_ZNK7TypeInt7get_conEv(ptr noundef nonnull align 8 dereferenceable(32) %0) #1 comdat align 2 {
  %2 = alloca ptr, align 8
  store ptr %0, ptr %2, align 8
  %3 = load ptr, ptr %2, align 8
  %4 = getelementptr inbounds %class.TypeInt, ptr %3, i32 0, i32 1
  %5 = load i32, ptr %4, align 8
  ret i32 %5
}

; Function Attrs: mustprogress nounwind uwtable
define linkonce_odr hidden noundef zeroext i1 @_ZNK7TypeInt6is_conEv(ptr noundef nonnull align 8 dereferenceable(32) %0) #1 comdat align 2 {
  %2 = alloca ptr, align 8
  store ptr %0, ptr %2, align 8
  %3 = load ptr, ptr %2, align 8
  %4 = getelementptr inbounds %class.TypeInt, ptr %3, i32 0, i32 1
  %5 = load i32, ptr %4, align 8
  %6 = getelementptr inbounds %class.TypeInt, ptr %3, i32 0, i32 2
  %7 = load i32, ptr %6, align 4
  %8 = icmp eq i32 %5, %7
  ret i1 %8
}

; Function Attrs: mustprogress nounwind uwtable
define linkonce_odr hidden noundef ptr @_ZNK4Type6is_intEv(ptr noundef nonnull align 8 dereferenceable(20) %0) #1 comdat align 2 {
  %2 = alloca ptr, align 8
  store ptr %0, ptr %2, align 8
  %3 = load ptr, ptr %2, align 8
  ret ptr %3
}

; Function Attrs: mustprogress nounwind uwtable
define linkonce_odr hidden noundef ptr @_ZNK11PhaseValues4typeEPK4Node(ptr noundef nonnull align 8 dereferenceable(2400) %0, ptr noundef %1) #1 comdat align 2 {
  %3 = alloca ptr, align 8
  %4 = alloca ptr, align 8
  %5 = alloca ptr, align 8
  store ptr %0, ptr %3, align 8
  store ptr %1, ptr %4, align 8
  %6 = load ptr, ptr %3, align 8
  %7 = getelementptr inbounds %class.PhaseValues, ptr %6, i32 0, i32 3
  %8 = load ptr, ptr %7, align 8
  %9 = load ptr, ptr %4, align 8
  %10 = getelementptr inbounds %class.Node, ptr %9, i32 0, i32 7
  %11 = load i32, ptr %10, align 8
  %12 = call noundef ptr @_ZNK10Type_Array11fast_lookupEj(ptr noundef nonnull align 8 dereferenceable(24) %8, i32 noundef %11)
  store ptr %12, ptr %5, align 8
  %13 = load ptr, ptr %5, align 8
  ret ptr %13
}

; Function Attrs: mustprogress nounwind uwtable
define linkonce_odr hidden noundef ptr @_ZNK4Node2inEj(ptr noundef nonnull align 8 dereferenceable(52) %0, i32 noundef %1) #1 comdat align 2 {
  %3 = alloca ptr, align 8
  %4 = alloca i32, align 4
  store ptr %0, ptr %3, align 8
  store i32 %1, ptr %4, align 4
  %5 = load ptr, ptr %3, align 8
  %6 = getelementptr inbounds %class.Node, ptr %5, i32 0, i32 1
  %7 = load ptr, ptr %6, align 8
  %8 = load i32, ptr %4, align 4
  %9 = zext i32 %8 to i64
  %10 = getelementptr inbounds ptr, ptr %7, i64 %9
  %11 = load ptr, ptr %10, align 8
  ret ptr %11
}

; Function Attrs: mustprogress nounwind uwtable
define hidden noundef ptr @_ZNK11LShiftINode5ValueEP8PhaseGVN(ptr noundef nonnull align 8 dereferenceable(52) %0, ptr noundef %1) unnamed_addr #1 align 2 {
  %3 = alloca ptr, align 8
  %4 = alloca ptr, align 8
  %5 = alloca ptr, align 8
  %6 = alloca ptr, align 8
  %7 = alloca ptr, align 8
  %8 = alloca ptr, align 8
  %9 = alloca ptr, align 8
  %10 = alloca i32, align 4
  %11 = alloca i32, align 4
  %12 = alloca i32, align 4
  store ptr %0, ptr %4, align 8
  store ptr %1, ptr %5, align 8
  %13 = load ptr, ptr %4, align 8
  %14 = load ptr, ptr %5, align 8
  %15 = call noundef ptr @_ZNK4Node2inEj(ptr noundef nonnull align 8 dereferenceable(52) %13, i32 noundef 1)
  %16 = call noundef ptr @_ZNK11PhaseValues4typeEPK4Node(ptr noundef nonnull align 8 dereferenceable(2400) %14, ptr noundef %15)
  store ptr %16, ptr %6, align 8
  %17 = load ptr, ptr %5, align 8
  %18 = call noundef ptr @_ZNK4Node2inEj(ptr noundef nonnull align 8 dereferenceable(52) %13, i32 noundef 2)
  %19 = call noundef ptr @_ZNK11PhaseValues4typeEPK4Node(ptr noundef nonnull align 8 dereferenceable(2400) %17, ptr noundef %18)
  store ptr %19, ptr %7, align 8
  %20 = load ptr, ptr %6, align 8
  %21 = load ptr, ptr @_ZN4Type3TOPE, align 8
  %22 = icmp eq ptr %20, %21
  br i1 %22, label %23, label %25

23:                                               ; preds = %2
  %24 = load ptr, ptr @_ZN4Type3TOPE, align 8
  store ptr %24, ptr %3, align 8
  br label %128

25:                                               ; preds = %2
  %26 = load ptr, ptr %7, align 8
  %27 = load ptr, ptr @_ZN4Type3TOPE, align 8
  %28 = icmp eq ptr %26, %27
  br i1 %28, label %29, label %31

29:                                               ; preds = %25
  %30 = load ptr, ptr @_ZN4Type3TOPE, align 8
  store ptr %30, ptr %3, align 8
  br label %128

31:                                               ; preds = %25
  %32 = load ptr, ptr %6, align 8
  %33 = load ptr, ptr @_ZN7TypeInt4ZEROE, align 8
  %34 = icmp eq ptr %32, %33
  br i1 %34, label %35, label %37

35:                                               ; preds = %31
  %36 = load ptr, ptr @_ZN7TypeInt4ZEROE, align 8
  store ptr %36, ptr %3, align 8
  br label %128

37:                                               ; preds = %31
  %38 = load ptr, ptr %7, align 8
  %39 = load ptr, ptr @_ZN7TypeInt4ZEROE, align 8
  %40 = icmp eq ptr %38, %39
  br i1 %40, label %41, label %43

41:                                               ; preds = %37
  %42 = load ptr, ptr %6, align 8
  store ptr %42, ptr %3, align 8
  br label %128

43:                                               ; preds = %37
  %44 = load ptr, ptr %6, align 8
  %45 = load ptr, ptr @_ZN7TypeInt3INTE, align 8
  %46 = icmp eq ptr %44, %45
  br i1 %46, label %59, label %47

47:                                               ; preds = %43
  %48 = load ptr, ptr %7, align 8
  %49 = load ptr, ptr @_ZN7TypeInt3INTE, align 8
  %50 = icmp eq ptr %48, %49
  br i1 %50, label %59, label %51

51:                                               ; preds = %47
  %52 = load ptr, ptr %6, align 8
  %53 = load ptr, ptr @_ZN4Type6BOTTOME, align 8
  %54 = icmp eq ptr %52, %53
  br i1 %54, label %59, label %55

55:                                               ; preds = %51
  %56 = load ptr, ptr %7, align 8
  %57 = load ptr, ptr @_ZN4Type6BOTTOME, align 8
  %58 = icmp eq ptr %56, %57
  br i1 %58, label %59, label %61

59:                                               ; preds = %55, %51, %47, %43
  %60 = load ptr, ptr @_ZN7TypeInt3INTE, align 8
  store ptr %60, ptr %3, align 8
  br label %128

61:                                               ; preds = %55
  %62 = load ptr, ptr %6, align 8
  %63 = call noundef ptr @_ZNK4Type6is_intEv(ptr noundef nonnull align 8 dereferenceable(20) %62)
  store ptr %63, ptr %8, align 8
  %64 = load ptr, ptr %7, align 8
  %65 = call noundef ptr @_ZNK4Type6is_intEv(ptr noundef nonnull align 8 dereferenceable(20) %64)
  store ptr %65, ptr %9, align 8
  %66 = load ptr, ptr %9, align 8
  %67 = call noundef zeroext i1 @_ZNK7TypeInt6is_conEv(ptr noundef nonnull align 8 dereferenceable(32) %66)
  br i1 %67, label %70, label %68

68:                                               ; preds = %61
  %69 = load ptr, ptr @_ZN7TypeInt3INTE, align 8
  store ptr %69, ptr %3, align 8
  br label %128

70:                                               ; preds = %61
  %71 = load ptr, ptr %9, align 8
  %72 = call noundef i32 @_ZNK7TypeInt7get_conEv(ptr noundef nonnull align 8 dereferenceable(32) %71)
  store i32 %72, ptr %10, align 4
  %73 = load i32, ptr %10, align 4
  %74 = and i32 %73, 31
  store i32 %74, ptr %10, align 4
  %75 = load i32, ptr %10, align 4
  %76 = icmp eq i32 %75, 0
  br i1 %76, label %77, label %79

77:                                               ; preds = %70
  %78 = load ptr, ptr %6, align 8
  store ptr %78, ptr %3, align 8
  br label %128

79:                                               ; preds = %70
  %80 = load ptr, ptr %8, align 8
  %81 = call noundef zeroext i1 @_ZNK7TypeInt6is_conEv(ptr noundef nonnull align 8 dereferenceable(32) %80)
  br i1 %81, label %122, label %82

82:                                               ; preds = %79
  %83 = load ptr, ptr %8, align 8
  %84 = getelementptr inbounds %class.TypeInt, ptr %83, i32 0, i32 1
  %85 = load i32, ptr %84, align 8
  store i32 %85, ptr %11, align 4
  %86 = load ptr, ptr %8, align 8
  %87 = getelementptr inbounds %class.TypeInt, ptr %86, i32 0, i32 2
  %88 = load i32, ptr %87, align 4
  store i32 %88, ptr %12, align 4
  %89 = load i32, ptr %11, align 4
  %90 = load i32, ptr %10, align 4
  %91 = shl i32 %89, %90
  %92 = load i32, ptr %10, align 4
  %93 = ashr i32 %91, %92
  %94 = load i32, ptr %11, align 4
  %95 = icmp eq i32 %93, %94
  br i1 %95, label %96, label %120

96:                                               ; preds = %82
  %97 = load i32, ptr %12, align 4
  %98 = load i32, ptr %10, align 4
  %99 = shl i32 %97, %98
  %100 = load i32, ptr %10, align 4
  %101 = ashr i32 %99, %100
  %102 = load i32, ptr %12, align 4
  %103 = icmp eq i32 %101, %102
  br i1 %103, label %104, label %120

104:                                              ; preds = %96
  %105 = load i32, ptr %11, align 4
  %106 = load i32, ptr %10, align 4
  %107 = shl i32 %105, %106
  %108 = load i32, ptr %12, align 4
  %109 = load i32, ptr %10, align 4
  %110 = shl i32 %108, %109
  %111 = load ptr, ptr %8, align 8
  %112 = getelementptr inbounds %class.TypeInteger, ptr %111, i32 0, i32 1
  %113 = load i16, ptr %112, align 4
  %114 = load ptr, ptr %9, align 8
  %115 = getelementptr inbounds %class.TypeInteger, ptr %114, i32 0, i32 1
  %116 = load i16, ptr %115, align 4
  %117 = call noundef signext i16 @_Z4MAX2IsET_S0_S0_(i16 noundef signext %113, i16 noundef signext %116)
  %118 = sext i16 %117 to i32
  %119 = call noundef ptr @_ZN7TypeInt4makeEiii(i32 noundef %107, i32 noundef %110, i32 noundef %118)
  store ptr %119, ptr %3, align 8
  br label %128

120:                                              ; preds = %96, %82
  %121 = load ptr, ptr @_ZN7TypeInt3INTE, align 8
  store ptr %121, ptr %3, align 8
  br label %128

122:                                              ; preds = %79
  %123 = load ptr, ptr %8, align 8
  %124 = call noundef i32 @_ZNK7TypeInt7get_conEv(ptr noundef nonnull align 8 dereferenceable(32) %123)
  %125 = load i32, ptr %10, align 4
  %126 = shl i32 %124, %125
  %127 = call noundef ptr @_ZN7TypeInt4makeEi(i32 noundef %126)
  store ptr %127, ptr %3, align 8
  br label %128

128:                                              ; preds = %122, %120, %104, %77, %68, %59, %41, %35, %29, %23
  %129 = load ptr, ptr %3, align 8
  ret ptr %129
}