; Function Attrs: mustprogress nounwind uwtable
define hidden noundef ptr @_ZNK11LShiftINode5ValueEP8PhaseGVN(ptr nocapture noundef nonnull readonly align 8 dereferenceable(52) %0, ptr nocapture noundef readonly %1) unnamed_addr #0 align 2 {
  %3 = getelementptr inbounds i8, ptr %0, i64 8
  %4 = load ptr, ptr %3, align 8
  %5 = getelementptr inbounds i8, ptr %4, i64 8
  %6 = load ptr, ptr %5, align 8
  %7 = getelementptr inbounds i8, ptr %1, i64 40
  %8 = load ptr, ptr %7, align 8
  %9 = getelementptr inbounds i8, ptr %6, i64 40
  %10 = load i32, ptr %9, align 8
  %11 = getelementptr inbounds i8, ptr %8, i64 16
  %12 = load ptr, ptr %11, align 8
  %13 = zext i32 %10 to i64
  %14 = getelementptr inbounds ptr, ptr %12, i64 %13
  %15 = load ptr, ptr %14, align 8
  %16 = getelementptr inbounds i8, ptr %4, i64 16
  %17 = load ptr, ptr %16, align 8
  %18 = getelementptr inbounds i8, ptr %17, i64 40
  %19 = load i32, ptr %18, align 8
  %20 = zext i32 %19 to i64
  %21 = getelementptr inbounds ptr, ptr %12, i64 %20
  %22 = load ptr, ptr %21, align 8
  %23 = load ptr, ptr @_ZN4Type3TOPE, align 8
  %24 = icmp eq ptr %15, %23
  %25 = icmp eq ptr %22, %23
  %or.cond47 = or i1 %24, %25
  br i1 %or.cond47, label %72, label %26

26:                                               ; preds = %2
  %27 = load ptr, ptr @_ZN7TypeInt4ZEROE, align 8
  %28 = icmp eq ptr %15, %27
  br i1 %28, label %72, label %29

29:                                               ; preds = %26
  %30 = icmp eq ptr %22, %27
  br i1 %30, label %72, label %31

31:                                               ; preds = %29
  %32 = load ptr, ptr @_ZN7TypeInt3INTE, align 8
  %33 = icmp eq ptr %15, %32
  %34 = icmp eq ptr %22, %32
  %or.cond = or i1 %33, %34
  br i1 %or.cond, label %72, label %35

35:                                               ; preds = %31
  %36 = load ptr, ptr @_ZN4Type6BOTTOME, align 8
  %37 = icmp eq ptr %15, %36
  %38 = icmp eq ptr %22, %36
  %or.cond46 = or i1 %37, %38
  br i1 %or.cond46, label %72, label %39

39:                                               ; preds = %35
  %40 = getelementptr inbounds i8, ptr %22, i64 24
  %41 = load i32, ptr %40, align 8
  %42 = getelementptr inbounds i8, ptr %22, i64 28
  %43 = load i32, ptr %42, align 4
  %44 = icmp eq i32 %41, %43
  br i1 %44, label %45, label %72

45:                                               ; preds = %39
  %46 = and i32 %41, 31
  %47 = icmp eq i32 %46, 0
  br i1 %47, label %72, label %48

48:                                               ; preds = %45
  %49 = getelementptr inbounds i8, ptr %15, i64 24
  %50 = load i32, ptr %49, align 8
  %51 = getelementptr inbounds i8, ptr %15, i64 28
  %52 = load i32, ptr %51, align 4
  %53 = icmp eq i32 %50, %52
  %54 = shl i32 %50, %46
  br i1 %53, label %70, label %55

55:                                               ; preds = %48
  %56 = ashr exact i32 %54, %46
  %57 = icmp eq i32 %56, %50
  br i1 %57, label %58, label %72

58:                                               ; preds = %55
  %59 = shl i32 %52, %46
  %60 = ashr exact i32 %59, %46
  %61 = icmp eq i32 %60, %52
  br i1 %61, label %62, label %72

62:                                               ; preds = %58
  %63 = getelementptr inbounds i8, ptr %15, i64 20
  %64 = load i16, ptr %63, align 4
  %65 = getelementptr inbounds i8, ptr %22, i64 20
  %66 = load i16, ptr %65, align 4
  %67 = tail call noundef i16 @llvm.smax.i16(i16 %64, i16 %66)
  %68 = sext i16 %67 to i32
  %69 = tail call noundef ptr @_ZN7TypeInt4makeEiii(i32 noundef %54, i32 noundef %59, i32 noundef %68) #10
  br label %72

70:                                               ; preds = %48
  %71 = tail call noundef ptr @_ZN7TypeInt4makeEi(i32 noundef %54) #10
  br label %72

72:                                               ; preds = %55, %58, %39, %31, %35, %45, %29, %26, %2, %70, %62
  %.0 = phi ptr [ %71, %70 ], [ %69, %62 ], [ %23, %2 ], [ %27, %26 ], [ %15, %29 ], [ %15, %45 ], [ %32, %35 ], [ %32, %31 ], [ %32, %39 ], [ %32, %58 ], [ %32, %55 ]
  ret ptr %.0
}